; Function Attrs: mustprogress nofree norecurse nosync nounwind willreturn memory(argmem: read) uwtable
define noundef zeroext i1 @_ZN5arrow17RunEndEncodedType15RunEndTypeValidERKNS_8DataTypeE(ptr noundef nonnull readonly align 8 captures(none) dereferenceable(72) %0) local_unnamed_addr #14 align 2 {
_ZN5arrow15is_run_end_typeENS_4Type4typeE.exit:
  %1 = getelementptr inbounds nuw i8, ptr %0, i64 40
  %2 = load i32, ptr %1, align 8, !tbaa !336
  %3 = icmp ult i32 %2, 10
  %switch.cast = trunc i32 %2 to i10
  %switch.downshift = lshr i10 -352, %switch.cast
  %switch.masked = trunc i10 %switch.downshift to i1
  %.0.i = select i1 %3, i1 %switch.masked, i1 false
  ret i1 %.0.i
}